; Function Attrs: mustprogress nounwind uwtable
define dso_local noundef ptr @_ZN4llvm22AssemblerConstantPools8addEntryERNS_10MCStreamerEPKNS_6MCExprEjNS_5SMLocE(ptr noundef nonnull align 8 dereferenceable(40) %0, ptr nocapture noundef nonnull readonly align 8 dereferenceable(288) %1, ptr noundef %2, i32 noundef %3, ptr %4) local_unnamed_addr #0 align 2 {
  %6 = alloca ptr, align 8
  %7 = getelementptr inbounds nuw i8, ptr %1, i64 280
  %8 = load ptr, ptr %7, align 8
  %9 = getelementptr inbounds nuw i8, ptr %8, i64 8
  %10 = load ptr, ptr %9, align 8
  call void @llvm.lifetime.start.p0(i64 8, ptr nonnull %6)
  store ptr %10, ptr %6, align 8
  %11 = call noundef nonnull align 8 dereferenceable(216) ptr @_ZN4llvm9MapVectorIPNS_9MCSectionENS_12ConstantPoolENS_8DenseMapIS2_jNS_12DenseMapInfoIS2_vEENS_6detail12DenseMapPairIS2_jEEEENS_11SmallVectorISt4pairIS2_S3_ELj0EEEEixERKS2_(ptr noundef nonnull align 8 dereferenceable(40) %0, ptr noundef nonnull align 8 dereferenceable(8) %6)
  call void @llvm.lifetime.end.p0(i64 8, ptr nonnull %6)
  %12 = getelementptr inbounds nuw i8, ptr %1, i64 8
  %13 = load ptr, ptr %12, align 8
  %14 = call noundef ptr @_ZN4llvm12ConstantPool8addEntryEPKNS_6MCExprERNS_9MCContextEjNS_5SMLocE(ptr noundef nonnull align 8 dereferenceable(216) %11, ptr noundef %2, ptr noundef nonnull align 8 dereferenceable(2432) %13, i32 noundef %3, ptr %4)
  ret ptr %14
}